target datalayout = "e-m:e-p270:32:32-p271:32:32-p272:64:64-i64:64-i128:128-f80:128-n8:16:32:64-S128"
target triple = "x86_64-pc-linux-gnu"

%"class.std::__cxx11::basic_string" = type { %"struct.std::__cxx11::basic_string<char>::_Alloc_hider", i64, %union.anon }
%"struct.std::__cxx11::basic_string<char>::_Alloc_hider" = type { ptr }
%union.anon = type { i64, [8 x i8] }
%"class.rocksdb::Status" = type { i8, i8, i8, i8, i8, i8, %"class.std::unique_ptr" }
%"class.std::unique_ptr" = type { %"struct.std::__uniq_ptr_data" }
%"struct.std::__uniq_ptr_data" = type { %"class.std::__uniq_ptr_impl" }
%"class.std::__uniq_ptr_impl" = type { %"class.std::tuple" }
%"class.std::tuple" = type { %"struct.std::_Tuple_impl" }
%"struct.std::_Tuple_impl" = type { %"struct.std::_Head_base.4" }
%"struct.std::_Head_base.4" = type { ptr }
%"struct.rocksdb::ConfigOptions" = type { i8, i8, i8, i8, i8, %"class.std::__cxx11::basic_string", i32, i8, i64, ptr, %"class.std::shared_ptr" }
%"class.std::shared_ptr" = type { %"class.std::__shared_ptr" }
%"class.std::__shared_ptr" = type { ptr, %"class.std::__shared_count" }
%"class.std::__shared_count" = type { ptr }

; Function Attrs: mustprogress uwtable
define void @_ZN7rocksdb20RocksDBOptionsParser5ParseERKNSt7__cxx1112basic_stringIcSt11char_traitsIcESaIcEEEPNS_10FileSystemEbm(ptr dead_on_unwind noalias writable sret(%"class.rocksdb::Status") align 8 %0, ptr noundef nonnull align 8 dereferenceable(868) %1, ptr noundef nonnull align 8 dereferenceable(32) %2, ptr noundef %3, i1 noundef zeroext %4, i64 noundef %5) #3 align 2 personality ptr @__gxx_personality_v0 {
  %7 = alloca ptr, align 8
  %8 = alloca ptr, align 8
  %9 = alloca ptr, align 8
  %10 = alloca ptr, align 8
  %11 = alloca i8, align 1
  %12 = alloca i64, align 8
  %13 = alloca %"struct.rocksdb::ConfigOptions", align 8
  %14 = alloca ptr, align 8
  %15 = alloca i32, align 4
  store ptr %0, ptr %7, align 8
  store ptr %1, ptr %8, align 8, !tbaa !275
  store ptr %2, ptr %9, align 8, !tbaa !9
  store ptr %3, ptr %10, align 8, !tbaa !60
  %16 = zext i1 %4 to i8
  store i8 %16, ptr %11, align 1, !tbaa !165
  store i64 %5, ptr %12, align 8, !tbaa !16
  %17 = load ptr, ptr %8, align 8
  call void @llvm.lifetime.start.p0(i64 80, ptr %13) #4
  call void @_ZN7rocksdb13ConfigOptionsC1Ev(ptr noundef nonnull align 8 dereferenceable(80) %13)
  %18 = load i8, ptr %11, align 1, !tbaa !165, !range !226, !noundef !227
  %19 = trunc i8 %18 to i1
  %20 = getelementptr inbounds nuw %"struct.rocksdb::ConfigOptions", ptr %13, i32 0, i32 0
  %21 = zext i1 %19 to i8
  store i8 %21, ptr %20, align 8, !tbaa !307
  %22 = load i64, ptr %12, align 8, !tbaa !16
  %23 = icmp ugt i64 %22, 0
  br i1 %23, label %24, label %27

24:                                               ; preds = %6
  %25 = load i64, ptr %12, align 8, !tbaa !16
  %26 = getelementptr inbounds nuw %"struct.rocksdb::ConfigOptions", ptr %13, i32 0, i32 8
  store i64 %25, ptr %26, align 8, !tbaa !116
  br label %27

27:                                               ; preds = %24, %6
  %28 = load ptr, ptr %9, align 8, !tbaa !9
  %29 = load ptr, ptr %10, align 8, !tbaa !60
  invoke void @_ZN7rocksdb20RocksDBOptionsParser5ParseERKNS_13ConfigOptionsERKNSt7__cxx1112basic_stringIcSt11char_traitsIcESaIcEEEPNS_10FileSystemE(ptr dead_on_unwind writable sret(%"class.rocksdb::Status") align 8 %0, ptr noundef nonnull align 8 dereferenceable(868) %17, ptr noundef nonnull align 8 dereferenceable(80) %13, ptr noundef nonnull align 8 dereferenceable(32) %28, ptr noundef %29)
          to label %30 unwind label %31

30:                                               ; preds = %27
  call void @_ZN7rocksdb13ConfigOptionsD2Ev(ptr noundef nonnull align 8 dereferenceable(80) %13) #4
  call void @llvm.lifetime.end.p0(i64 80, ptr %13) #4
  ret void

31:                                               ; preds = %27
  %32 = landingpad { ptr, i32 }
          cleanup
  %33 = extractvalue { ptr, i32 } %32, 0
  store ptr %33, ptr %14, align 8
  %34 = extractvalue { ptr, i32 } %32, 1
  store i32 %34, ptr %15, align 4
  call void @_ZN7rocksdb13ConfigOptionsD2Ev(ptr noundef nonnull align 8 dereferenceable(80) %13) #4
  call void @llvm.lifetime.end.p0(i64 80, ptr %13) #4
  br label %35

35:                                               ; preds = %31
  %36 = load ptr, ptr %14, align 8
  %37 = load i32, ptr %15, align 4
  %38 = insertvalue { ptr, i32 } poison, ptr %36, 0
  %39 = insertvalue { ptr, i32 } %38, i32 %37, 1
  resume { ptr, i32 } %39
}