; Function Attrs: mustprogress uwtable
define void @_ZN7rocksdb20RocksDBOptionsParser5ParseERKNSt7__cxx1112basic_stringIcSt11char_traitsIcESaIcEEEPNS_10FileSystemEbm(ptr dead_on_unwind noalias writable sret(%"class.rocksdb::Status") align 8 initializes((0, 6), (8, 16)) %0, ptr noundef nonnull align 8 dereferenceable(868) %1, ptr noundef nonnull align 8 dereferenceable(32) %2, ptr noundef %3, i1 noundef zeroext %4, i64 noundef %5) local_unnamed_addr #4 align 2 personality ptr @__gxx_personality_v0 {
  %7 = alloca %"struct.rocksdb::ConfigOptions", align 8
  %8 = zext i1 %4 to i8
  call void @llvm.lifetime.start.p0(i64 80, ptr nonnull %7) #26
  call void @_ZN7rocksdb13ConfigOptionsC1Ev(ptr noundef nonnull align 8 dereferenceable(80) %7)
  store i8 %8, ptr %7, align 8, !tbaa !429
  %.not = icmp eq i64 %5, 0
  br i1 %.not, label %11, label %9

9:                                                ; preds = %6
  %10 = getelementptr inbounds nuw i8, ptr %7, i64 48
  store i64 %5, ptr %10, align 8, !tbaa !73
  br label %11

11:                                               ; preds = %9, %6
  invoke void @_ZN7rocksdb20RocksDBOptionsParser5ParseERKNS_13ConfigOptionsERKNSt7__cxx1112basic_stringIcSt11char_traitsIcESaIcEEEPNS_10FileSystemE(ptr dead_on_unwind writable sret(%"class.rocksdb::Status") align 8 %0, ptr noundef nonnull align 8 dereferenceable(868) %1, ptr noundef nonnull align 8 dereferenceable(80) %7, ptr noundef nonnull align 8 dereferenceable(32) %2, ptr noundef %3)
          to label %12 unwind label %45

12:                                               ; preds = %11
  %13 = getelementptr inbounds nuw i8, ptr %7, i64 72
  %14 = load ptr, ptr %13, align 8, !tbaa !74
  %.not.i.i.i = icmp eq ptr %14, null
  br i1 %.not.i.i.i, label %_ZNSt12__shared_ptrIN7rocksdb14ObjectRegistryELN9__gnu_cxx12_Lock_policyE2EED2Ev.exit.i, label %15

15:                                               ; preds = %12
  %16 = getelementptr inbounds nuw i8, ptr %14, i64 8
  %17 = load atomic i64, ptr %16 acquire, align 8
  %18 = icmp eq i64 %17, 4294967297
  %19 = trunc i64 %17 to i32
  br i1 %18, label %20, label %28

20:                                               ; preds = %15
  store i32 0, ptr %16, align 8, !tbaa !75
  %21 = getelementptr inbounds nuw i8, ptr %14, i64 12
  store i32 0, ptr %21, align 4, !tbaa !77
  %22 = load ptr, ptr %14, align 8, !tbaa !78
  %23 = getelementptr inbounds nuw i8, ptr %22, i64 16
  %24 = load ptr, ptr %23, align 8
  call void %24(ptr noundef nonnull align 8 dereferenceable(16) %14) #26
  %25 = load ptr, ptr %14, align 8, !tbaa !78
  %26 = getelementptr inbounds nuw i8, ptr %25, i64 24
  %27 = load ptr, ptr %26, align 8
  call void %27(ptr noundef nonnull align 8 dereferenceable(16) %14) #26
  br label %_ZNSt12__shared_ptrIN7rocksdb14ObjectRegistryELN9__gnu_cxx12_Lock_policyE2EED2Ev.exit.i

28:                                               ; preds = %15
  %29 = load i8, ptr @__libc_single_threaded, align 1, !tbaa !13
  %.not.i.i.i.i = icmp eq i8 %29, 0
  br i1 %.not.i.i.i.i, label %32, label %30

30:                                               ; preds = %28
  %31 = add nsw i32 %19, -1
  store i32 %31, ptr %16, align 4, !tbaa !80
  br label %_ZN9__gnu_cxx27__exchange_and_add_dispatchEPii.exit.i.i.i.i

32:                                               ; preds = %28
  %33 = atomicrmw volatile add ptr %16, i32 -1 acq_rel, align 4
  br label %_ZN9__gnu_cxx27__exchange_and_add_dispatchEPii.exit.i.i.i.i

_ZN9__gnu_cxx27__exchange_and_add_dispatchEPii.exit.i.i.i.i: ; preds = %32, %30
  %.0.i.i.i.i.i = phi i32 [ %19, %30 ], [ %33, %32 ]
  %34 = icmp eq i32 %.0.i.i.i.i.i, 1
  br i1 %34, label %35, label %_ZNSt12__shared_ptrIN7rocksdb14ObjectRegistryELN9__gnu_cxx12_Lock_policyE2EED2Ev.exit.i, !prof !81

35:                                               ; preds = %_ZN9__gnu_cxx27__exchange_and_add_dispatchEPii.exit.i.i.i.i
  call void @_ZNSt16_Sp_counted_baseILN9__gnu_cxx12_Lock_policyE2EE24_M_release_last_use_coldEv(ptr noundef nonnull align 8 dereferenceable(16) %14) #26
  br label %_ZNSt12__shared_ptrIN7rocksdb14ObjectRegistryELN9__gnu_cxx12_Lock_policyE2EED2Ev.exit.i

_ZNSt12__shared_ptrIN7rocksdb14ObjectRegistryELN9__gnu_cxx12_Lock_policyE2EED2Ev.exit.i: ; preds = %35, %_ZN9__gnu_cxx27__exchange_and_add_dispatchEPii.exit.i.i.i.i, %20, %12
  %36 = getelementptr inbounds nuw i8, ptr %7, i64 8
  %37 = load ptr, ptr %36, align 8, !tbaa !4
  %38 = getelementptr inbounds nuw i8, ptr %7, i64 24
  %39 = icmp eq ptr %37, %38
  br i1 %39, label %_ZNKSt7__cxx1112basic_stringIcSt11char_traitsIcESaIcEE11_M_is_localEv.exit.thread.i.i.i, label %_ZNKSt7__cxx1112basic_stringIcSt11char_traitsIcESaIcEE11_M_is_localEv.exit.i.i.i

_ZNKSt7__cxx1112basic_stringIcSt11char_traitsIcESaIcEE11_M_is_localEv.exit.thread.i.i.i: ; preds = %_ZNSt12__shared_ptrIN7rocksdb14ObjectRegistryELN9__gnu_cxx12_Lock_policyE2EED2Ev.exit.i
  %40 = getelementptr inbounds nuw i8, ptr %7, i64 16
  %41 = load i64, ptr %40, align 8, !tbaa !12
  %42 = icmp ult i64 %41, 16
  call void @llvm.assume(i1 %42)
  br label %_ZN7rocksdb13ConfigOptionsD2Ev.exit

_ZNKSt7__cxx1112basic_stringIcSt11char_traitsIcESaIcEE11_M_is_localEv.exit.i.i.i: ; preds = %_ZNSt12__shared_ptrIN7rocksdb14ObjectRegistryELN9__gnu_cxx12_Lock_policyE2EED2Ev.exit.i
  %43 = load i64, ptr %38, align 8, !tbaa !13
  %44 = add i64 %43, 1
  call void @_ZdlPvm(ptr noundef %37, i64 noundef %44) #25
  br label %_ZN7rocksdb13ConfigOptionsD2Ev.exit

_ZN7rocksdb13ConfigOptionsD2Ev.exit:              ; preds = %_ZNKSt7__cxx1112basic_stringIcSt11char_traitsIcESaIcEE11_M_is_localEv.exit.thread.i.i.i, %_ZNKSt7__cxx1112basic_stringIcSt11char_traitsIcESaIcEE11_M_is_localEv.exit.i.i.i
  call void @llvm.lifetime.end.p0(i64 80, ptr nonnull %7) #26
  ret void

45:                                               ; preds = %11
  %46 = landingpad { ptr, i32 }
          cleanup
  call void @_ZN7rocksdb13ConfigOptionsD2Ev(ptr noundef nonnull align 8 dereferenceable(80) %7) #26
  call void @llvm.lifetime.end.p0(i64 80, ptr nonnull %7) #26
  resume { ptr, i32 } %46
}